target datalayout = "e-m:e-p270:32:32-p271:32:32-p272:64:64-i64:64-i128:128-f80:128-n8:16:32:64-S128"
target triple = "x86_64-pc-linux-gnu"

%"class.sat::literal" = type { i32 }
%"struct.nlsat::interval" = type { i8, %"class.sat::literal", ptr, %"class.algebraic_numbers::anum", %"class.algebraic_numbers::anum" }
%"class.algebraic_numbers::anum" = type { ptr }
%"class.nlsat::interval_set" = type { i32, i32, [0 x %"struct.nlsat::interval"] }

; Function Attrs: mustprogress nounwind uwtable
define hidden void @_ZN5nlsat20interval_set_manager7inc_refEPNS_12interval_setE(ptr noundef nonnull align 8 dereferenceable(28) %0, ptr noundef %1) #4 align 2 {
  %3 = alloca ptr, align 8
  %4 = alloca ptr, align 8
  store ptr %0, ptr %3, align 8, !tbaa !28
  store ptr %1, ptr %4, align 8, !tbaa !40
  %5 = load ptr, ptr %4, align 8, !tbaa !40
  %6 = getelementptr inbounds nuw %"class.nlsat::interval_set", ptr %5, i32 0, i32 1
  %7 = load i32, ptr %6, align 4
  %8 = and i32 %7, 2147483647
  %9 = add i32 %8, 1
  %10 = load i32, ptr %6, align 4
  %11 = and i32 %9, 2147483647
  %12 = and i32 %10, -2147483648
  %13 = or i32 %12, %11
  store i32 %13, ptr %6, align 4
  ret void
}