; Function Attrs: mustprogress nofree norecurse nosync nounwind willreturn memory(argmem: readwrite) uwtable
define hidden void @_ZN5nlsat20interval_set_manager7inc_refEPNS_12interval_setE(ptr noundef nonnull readnone align 8 captures(none) dereferenceable(28) %0, ptr noundef captures(none) %1) local_unnamed_addr #7 align 2 {
  %3 = getelementptr inbounds nuw i8, ptr %1, i64 4
  %4 = load i32, ptr %3, align 4
  %5 = add i32 %4, 1
  %6 = and i32 %5, 2147483647
  %7 = and i32 %4, -2147483648
  %8 = or disjoint i32 %6, %7
  store i32 %8, ptr %3, align 4
  ret void
}